target datalayout = "e-m:e-p270:32:32-p271:32:32-p272:64:64-i64:64-i128:128-f80:128-n8:16:32:64-S128"
target triple = "x86_64-pc-linux-gnu"

%"class.std::shared_ptr" = type { %"class.std::__shared_ptr" }
%"class.std::__shared_ptr" = type { ptr, %"class.std::__shared_count" }
%"class.std::__shared_count" = type { ptr }
%"class.std::vector" = type { %"struct.std::_Vector_base" }
%"struct.std::_Vector_base" = type { %"struct.std::_Vector_base<json11::Json, std::allocator<json11::Json>>::_Vector_impl" }
%"struct.std::_Vector_base<json11::Json, std::allocator<json11::Json>>::_Vector_impl" = type { %"struct.std::_Vector_base<json11::Json, std::allocator<json11::Json>>::_Vector_impl_data" }
%"struct.std::_Vector_base<json11::Json, std::allocator<json11::Json>>::_Vector_impl_data" = type { ptr, ptr, ptr }
%"class.json11::Json" = type { %"class.std::shared_ptr" }
%"class.json11::JsonValue" = type { ptr }
%"class.json11::Value.21" = type { %"class.json11::JsonValue", %"class.std::vector" }

@__dso_handle = external hidden global i8
@_ZZN6json11L11static_nullEvE9json_null = internal global %"class.json11::Json" zeroinitializer, align 8
@_ZGVZN6json11L11static_nullEvE9json_null = internal global i64 0, align 8
@_ZN6json114JsonC1Ev = unnamed_addr alias void (ptr), ptr @_ZN6json114JsonC2Ev

; Function Attrs: mustprogress nounwind uwtable
define linkonce_odr noundef nonnull align 8 dereferenceable(16) ptr @_ZNKSt6vectorIN6json114JsonESaIS1_EEixEm(ptr noundef nonnull align 8 dereferenceable(24) %0, i64 noundef %1) #1 comdat align 2 {
  %3 = alloca ptr, align 8
  %4 = alloca i64, align 8
  store ptr %0, ptr %3, align 8
  store i64 %1, ptr %4, align 8
  %5 = load ptr, ptr %3, align 8
  %6 = getelementptr inbounds %"struct.std::_Vector_base", ptr %5, i32 0, i32 0
  %7 = getelementptr inbounds %"struct.std::_Vector_base<json11::Json, std::allocator<json11::Json>>::_Vector_impl_data", ptr %6, i32 0, i32 0
  %8 = load ptr, ptr %7, align 8
  %9 = load i64, ptr %4, align 8
  %10 = getelementptr inbounds %"class.json11::Json", ptr %8, i64 %9
  ret ptr %10
}

; Function Attrs: mustprogress nounwind uwtable
define internal noundef nonnull align 8 dereferenceable(16) ptr @_ZN6json11L11static_nullEv() #1 {
  %1 = load atomic i8, ptr @_ZGVZN6json11L11static_nullEvE9json_null acquire, align 8
  %2 = icmp eq i8 %1, 0
  br i1 %2, label %3, label %8, !prof !6

3:                                                ; preds = %0
  %4 = call i32 @__cxa_guard_acquire(ptr @_ZGVZN6json11L11static_nullEvE9json_null) #4
  %5 = icmp ne i32 %4, 0
  br i1 %5, label %6, label %8

6:                                                ; preds = %3
  call void @_ZN6json114JsonC1Ev(ptr noundef nonnull align 8 dereferenceable(16) @_ZZN6json11L11static_nullEvE9json_null) #4
  %7 = call i32 @__cxa_atexit(ptr @_ZN6json114JsonD2Ev, ptr @_ZZN6json11L11static_nullEvE9json_null, ptr @__dso_handle) #4
  call void @__cxa_guard_release(ptr @_ZGVZN6json11L11static_nullEvE9json_null) #4
  br label %8

8:                                                ; preds = %6, %3, %0
  ret ptr @_ZZN6json11L11static_nullEvE9json_null
}

; Function Attrs: mustprogress nounwind uwtable
define linkonce_odr noundef i64 @_ZNKSt6vectorIN6json114JsonESaIS1_EE4sizeEv(ptr noundef nonnull align 8 dereferenceable(24) %0) #1 comdat align 2 {
  %2 = alloca ptr, align 8
  store ptr %0, ptr %2, align 8
  %3 = load ptr, ptr %2, align 8
  %4 = getelementptr inbounds %"struct.std::_Vector_base", ptr %3, i32 0, i32 0
  %5 = getelementptr inbounds %"struct.std::_Vector_base<json11::Json, std::allocator<json11::Json>>::_Vector_impl_data", ptr %4, i32 0, i32 1
  %6 = load ptr, ptr %5, align 8
  %7 = getelementptr inbounds %"struct.std::_Vector_base", ptr %3, i32 0, i32 0
  %8 = getelementptr inbounds %"struct.std::_Vector_base<json11::Json, std::allocator<json11::Json>>::_Vector_impl_data", ptr %7, i32 0, i32 0
  %9 = load ptr, ptr %8, align 8
  %10 = ptrtoint ptr %6 to i64
  %11 = ptrtoint ptr %9 to i64
  %12 = sub i64 %10, %11
  %13 = sdiv exact i64 %12, 16
  ret i64 %13
}

; Function Attrs: mustprogress uwtable
define noundef nonnull align 8 dereferenceable(16) ptr @_ZNK6json119JsonArrayixEm(ptr noundef nonnull align 8 dereferenceable(32) %0, i64 noundef %1) unnamed_addr #0 align 2 {
  %3 = alloca ptr, align 8
  %4 = alloca ptr, align 8
  %5 = alloca i64, align 8
  store ptr %0, ptr %4, align 8
  store i64 %1, ptr %5, align 8
  %6 = load ptr, ptr %4, align 8
  %7 = load i64, ptr %5, align 8
  %8 = getelementptr inbounds %"class.json11::Value.21", ptr %6, i32 0, i32 1
  %9 = call noundef i64 @_ZNKSt6vectorIN6json114JsonESaIS1_EE4sizeEv(ptr noundef nonnull align 8 dereferenceable(24) %8) #4
  %10 = icmp uge i64 %7, %9
  br i1 %10, label %11, label %13

11:                                               ; preds = %2
  %12 = call noundef nonnull align 8 dereferenceable(16) ptr @_ZN6json11L11static_nullEv()
  store ptr %12, ptr %3, align 8
  br label %17

13:                                               ; preds = %2
  %14 = getelementptr inbounds %"class.json11::Value.21", ptr %6, i32 0, i32 1
  %15 = load i64, ptr %5, align 8
  %16 = call noundef nonnull align 8 dereferenceable(16) ptr @_ZNKSt6vectorIN6json114JsonESaIS1_EEixEm(ptr noundef nonnull align 8 dereferenceable(24) %14, i64 noundef %15) #4
  store ptr %16, ptr %3, align 8
  br label %17

17:                                               ; preds = %13, %11
  %18 = load ptr, ptr %3, align 8
  ret ptr %18
}